target datalayout = "e-m:e-p270:32:32-p271:32:32-p272:64:64-i64:64-i128:128-f80:128-n8:16:32:64-S128"
target triple = "x86_64-pc-linux-gnu"

@.str = private unnamed_addr constant [6 x i8] c"PASS\0A\00", align 1
@_ZZL21rfc_4493_test_vectorsvE4kKey = internal constant [16 x i8] c"+~\15\16(\AE\D2\A6\AB\F7\15\88\09\CFO<", align 16
@_ZZL21rfc_4493_test_vectorsvE5kOut1 = internal constant [16 x i8] c"\BB\1Di)\E9Y7(\7F\A3}\12\9BugF", align 16
@_ZZL21rfc_4493_test_vectorsvE5kMsg2 = internal constant [16 x i8] c"k\C1\BE\E2.@\9F\96\E9=~\11s\93\17*", align 16
@_ZZL21rfc_4493_test_vectorsvE5kOut2 = internal constant [16 x i8] c"\07\0A\16\B4kMAD\F7\9B\DD\9D\D0J(|", align 16
@_ZZL21rfc_4493_test_vectorsvE5kMsg3 = internal constant [40 x i8] c"k\C1\BE\E2.@\9F\96\E9=~\11s\93\17*\AE-\8AW\1E\03\AC\9C\9E\B7o\ACE\AF\8EQ0\C8\1CF\A3\\\E4\11", align 16
@_ZZL21rfc_4493_test_vectorsvE5kOut3 = internal constant [16 x i8] c"\DF\A6gG\DE\9A\E600\CA2a\14\97\C8'", align 16
@_ZZL21rfc_4493_test_vectorsvE5kMsg4 = internal constant [64 x i8] c"k\C1\BE\E2.@\9F\96\E9=~\11s\93\17*\AE-\8AW\1E\03\AC\9C\9E\B7o\ACE\AF\8EQ0\C8\1CF\A3\\\E4\11\E5\FB\C1\19\1A\0AR\EF\F6\9F$E\DFO\9B\17\AD+A{\E6l7\10", align 16
@_ZZL21rfc_4493_test_vectorsvE5kOut4 = internal constant [16 x i8] c"Q\F0\BE\BF~;\9D\92\FCIt\17y6<\FE", align 16
@.str.1 = private unnamed_addr constant [12 x i8] c"RFC 4493 #1\00", align 1
@.str.2 = private unnamed_addr constant [12 x i8] c"RFC 4493 #2\00", align 1
@.str.3 = private unnamed_addr constant [12 x i8] c"RFC 4493 #3\00", align 1
@.str.4 = private unnamed_addr constant [12 x i8] c"RFC 4493 #4\00", align 1

; Function Attrs: mustprogress uwtable
define internal noundef i32 @_ZL21rfc_4493_test_vectorsv() #1 {
  %1 = alloca i32, align 4
  %2 = call noundef i32 @_ZL4testPKcPKhmS2_mS2_(ptr noundef @.str.1, ptr noundef @_ZZL21rfc_4493_test_vectorsvE4kKey, i64 noundef 16, ptr noundef null, i64 noundef 0, ptr noundef @_ZZL21rfc_4493_test_vectorsvE5kOut1)
  %3 = icmp ne i32 %2, 0
  br i1 %3, label %4, label %13

4:                                                ; preds = %0
  %5 = call noundef i32 @_ZL4testPKcPKhmS2_mS2_(ptr noundef @.str.2, ptr noundef @_ZZL21rfc_4493_test_vectorsvE4kKey, i64 noundef 16, ptr noundef @_ZZL21rfc_4493_test_vectorsvE5kMsg2, i64 noundef 16, ptr noundef @_ZZL21rfc_4493_test_vectorsvE5kOut2)
  %6 = icmp ne i32 %5, 0
  br i1 %6, label %7, label %13

7:                                                ; preds = %4
  %8 = call noundef i32 @_ZL4testPKcPKhmS2_mS2_(ptr noundef @.str.3, ptr noundef @_ZZL21rfc_4493_test_vectorsvE4kKey, i64 noundef 16, ptr noundef @_ZZL21rfc_4493_test_vectorsvE5kMsg3, i64 noundef 40, ptr noundef @_ZZL21rfc_4493_test_vectorsvE5kOut3)
  %9 = icmp ne i32 %8, 0
  br i1 %9, label %10, label %13

10:                                               ; preds = %7
  %11 = call noundef i32 @_ZL4testPKcPKhmS2_mS2_(ptr noundef @.str.4, ptr noundef @_ZZL21rfc_4493_test_vectorsvE4kKey, i64 noundef 16, ptr noundef @_ZZL21rfc_4493_test_vectorsvE5kMsg4, i64 noundef 64, ptr noundef @_ZZL21rfc_4493_test_vectorsvE5kOut4)
  %12 = icmp ne i32 %11, 0
  br i1 %12, label %14, label %13

13:                                               ; preds = %10, %7, %4, %0
  store i32 0, ptr %1, align 4
  br label %15

14:                                               ; preds = %10
  store i32 1, ptr %1, align 4
  br label %15

15:                                               ; preds = %14, %13
  %16 = load i32, ptr %1, align 4
  ret i32 %16
}

; Function Attrs: mustprogress norecurse uwtable
define hidden noundef i32 @main(i32 noundef %0, ptr noundef %1) #0 {
  %3 = alloca i32, align 4
  %4 = alloca i32, align 4
  %5 = alloca ptr, align 8
  store i32 0, ptr %3, align 4
  store i32 %0, ptr %4, align 4, !tbaa !6
  store ptr %1, ptr %5, align 8, !tbaa !10
  %6 = call noundef i32 @_ZL21rfc_4493_test_vectorsv()
  %7 = icmp ne i32 %6, 0
  br i1 %7, label %9, label %8

8:                                                ; preds = %2
  store i32 1, ptr %3, align 4
  br label %11

9:                                                ; preds = %2
  %10 = call i32 (ptr, ...) @printf(ptr noundef @.str)
  store i32 0, ptr %3, align 4
  br label %11

11:                                               ; preds = %9, %8
  %12 = load i32, ptr %3, align 4
  ret i32 %12
}