; Function Attrs: mustprogress norecurse uwtable
define hidden noundef range(i32 0, 2) i32 @main(i32 noundef %0, ptr noundef readnone captures(none) %1) local_unnamed_addr #0 {
  %3 = tail call fastcc noundef i32 @_ZL4testPKcPKhmS2_mS2_(ptr noundef nonnull @.str.1, ptr noundef null, i64 noundef 0, ptr noundef nonnull @_ZZL21rfc_4493_test_vectorsvE5kOut1)
  %.not.i = icmp eq i32 %3, 0
  br i1 %.not.i, label %_ZL21rfc_4493_test_vectorsv.exit.thread, label %4

4:                                                ; preds = %2
  %5 = tail call fastcc noundef i32 @_ZL4testPKcPKhmS2_mS2_(ptr noundef nonnull @.str.2, ptr noundef nonnull @_ZZL21rfc_4493_test_vectorsvE5kMsg2, i64 noundef 16, ptr noundef nonnull @_ZZL21rfc_4493_test_vectorsvE5kOut2)
  %.not1.i = icmp eq i32 %5, 0
  br i1 %.not1.i, label %_ZL21rfc_4493_test_vectorsv.exit.thread, label %6

6:                                                ; preds = %4
  %7 = tail call fastcc noundef i32 @_ZL4testPKcPKhmS2_mS2_(ptr noundef nonnull @.str.3, ptr noundef nonnull @_ZZL21rfc_4493_test_vectorsvE5kMsg3, i64 noundef 40, ptr noundef nonnull @_ZZL21rfc_4493_test_vectorsvE5kOut3)
  %.not2.i = icmp eq i32 %7, 0
  br i1 %.not2.i, label %_ZL21rfc_4493_test_vectorsv.exit.thread, label %_ZL21rfc_4493_test_vectorsv.exit

_ZL21rfc_4493_test_vectorsv.exit:                 ; preds = %6
  %8 = tail call fastcc noundef i32 @_ZL4testPKcPKhmS2_mS2_(ptr noundef nonnull @.str.4, ptr noundef nonnull @_ZZL21rfc_4493_test_vectorsvE5kMsg4, i64 noundef 64, ptr noundef nonnull @_ZZL21rfc_4493_test_vectorsvE5kOut4)
  %.not = icmp eq i32 %8, 0
  br i1 %.not, label %_ZL21rfc_4493_test_vectorsv.exit.thread, label %9

9:                                                ; preds = %_ZL21rfc_4493_test_vectorsv.exit
  %puts = tail call i32 @puts(ptr nonnull dereferenceable(1) @str)
  br label %_ZL21rfc_4493_test_vectorsv.exit.thread

_ZL21rfc_4493_test_vectorsv.exit.thread:          ; preds = %2, %4, %6, %_ZL21rfc_4493_test_vectorsv.exit, %9
  %.0 = phi i32 [ 0, %9 ], [ 1, %_ZL21rfc_4493_test_vectorsv.exit ], [ 1, %6 ], [ 1, %4 ], [ 1, %2 ]
  ret i32 %.0
}